; Function Attrs: mustprogress nofree norecurse nosync nounwind willreturn memory(readwrite, inaccessiblemem: write) uwtable
define void @_ZN3zmq4fq_t9activatedEPNS_6pipe_tE(ptr noundef nonnull align 8 captures(none) dereferenceable(41) %0, ptr noundef readonly %1) local_unnamed_addr #7 align 2 {
  %3 = icmp ne ptr %1, null
  tail call void @llvm.assume(i1 %3)
  %4 = getelementptr inbounds nuw i8, ptr %1, i64 32
  %5 = load i32, ptr %4, align 8, !tbaa !15
  %6 = sext i32 %5 to i64
  %7 = getelementptr inbounds nuw i8, ptr %0, i64 24
  %8 = load i64, ptr %7, align 8, !tbaa !21
  %9 = load ptr, ptr %0, align 8, !tbaa !12
  %10 = getelementptr inbounds nuw ptr, ptr %9, i64 %6
  %11 = load ptr, ptr %10, align 8, !tbaa !19
  %.not.i = icmp eq ptr %11, null
  br i1 %.not.i, label %15, label %12

12:                                               ; preds = %2
  %13 = trunc i64 %8 to i32
  %14 = getelementptr inbounds nuw i8, ptr %11, i64 32
  store i32 %13, ptr %14, align 8, !tbaa !15
  br label %15

15:                                               ; preds = %12, %2
  %16 = getelementptr inbounds nuw ptr, ptr %9, i64 %8
  %17 = load ptr, ptr %16, align 8, !tbaa !19
  %.not8.i = icmp eq ptr %17, null
  br i1 %.not8.i, label %_ZN3zmq7array_tINS_6pipe_tELi1EE4swapEmm.exit, label %18

18:                                               ; preds = %15
  %19 = getelementptr inbounds nuw i8, ptr %17, i64 32
  store i32 %5, ptr %19, align 8, !tbaa !15
  br label %_ZN3zmq7array_tINS_6pipe_tELi1EE4swapEmm.exit

_ZN3zmq7array_tINS_6pipe_tELi1EE4swapEmm.exit:    ; preds = %15, %18
  store ptr %17, ptr %10, align 8, !tbaa !19
  store ptr %11, ptr %16, align 8, !tbaa !19
  %20 = add i64 %8, 1
  store i64 %20, ptr %7, align 8, !tbaa !21
  ret void
}